; Function Attrs: nounwind uwtable
define noalias nonnull ptr @l_Array_forIn_x27Unsafe_loop___at_Lean_Meta_reduceMatcher_x3f___spec__2___lambda__1(ptr noundef %0, ptr noundef %1, ptr readnone captures(none) %2, ptr readnone captures(none) %3, ptr readnone captures(none) %4, ptr readnone captures(none) %5, ptr readnone captures(none) %6, ptr noundef %7) local_unnamed_addr #1 {
  %9 = ptrtoint ptr %1 to i64
  %10 = and i64 %9, 1
  %.not = icmp eq i64 %10, 0
  br i1 %.not, label %.critedge.i, label %11, !prof !16

11:                                               ; preds = %8
  %12 = lshr i64 %9, 1
  %13 = add nuw i64 %12, 1
  %14 = icmp sgt i64 %13, -1
  br i1 %14, label %15, label %19, !prof !11

15:                                               ; preds = %11
  %16 = shl nuw i64 %13, 1
  %17 = or disjoint i64 %16, 1
  %18 = inttoptr i64 %17 to ptr
  br label %lean_nat_add.exit

19:                                               ; preds = %11
  %20 = tail call ptr @lean_big_usize_to_nat(i64 noundef range(i64 0, -1) %13) #5
  br label %lean_nat_add.exit

.critedge.i:                                      ; preds = %8
  %21 = tail call ptr @lean_nat_big_add(ptr noundef %1, ptr noundef nonnull inttoptr (i64 3 to ptr)) #5
  br label %lean_nat_add.exit

lean_nat_add.exit:                                ; preds = %19, %15, %.critedge.i
  %.0.i = phi ptr [ %21, %.critedge.i ], [ %18, %15 ], [ %20, %19 ]
  tail call void @lean_inc_heartbeat() #5
  %22 = tail call noalias ptr @mi_malloc_small(i64 noundef 24) #5
  %23 = icmp eq ptr %22, null
  br i1 %23, label %24, label %lean_alloc_ctor.exit

24:                                               ; preds = %lean_nat_add.exit
  tail call void @lean_internal_panic_out_of_memory() #4
  unreachable

lean_alloc_ctor.exit:                             ; preds = %lean_nat_add.exit
  %25 = getelementptr inbounds nuw i8, ptr %22, i64 4
  store i32 1, ptr %22, align 4, !tbaa !4
  store i32 131096, ptr %25, align 4
  %26 = getelementptr inbounds nuw i8, ptr %22, i64 8
  store ptr %0, ptr %26, align 8, !tbaa !12
  %27 = getelementptr inbounds nuw i8, ptr %22, i64 16
  store ptr %.0.i, ptr %27, align 8, !tbaa !12
  tail call void @lean_inc_heartbeat() #5
  %28 = tail call noalias ptr @mi_malloc_small(i64 noundef 16) #5
  %29 = icmp eq ptr %28, null
  br i1 %29, label %30, label %lean_alloc_ctor.exit14

30:                                               ; preds = %lean_alloc_ctor.exit
  tail call void @lean_internal_panic_out_of_memory() #4
  unreachable

lean_alloc_ctor.exit14:                           ; preds = %lean_alloc_ctor.exit
  %31 = getelementptr inbounds nuw i8, ptr %28, i64 4
  store i32 1, ptr %28, align 4, !tbaa !4
  store i32 16842768, ptr %31, align 4
  %32 = getelementptr inbounds nuw i8, ptr %28, i64 8
  store ptr %22, ptr %32, align 8, !tbaa !12
  tail call void @lean_inc_heartbeat() #5
  %33 = tail call noalias ptr @mi_malloc_small(i64 noundef 24) #5
  %34 = icmp eq ptr %33, null
  br i1 %34, label %35, label %lean_alloc_ctor.exit15

35:                                               ; preds = %lean_alloc_ctor.exit14
  tail call void @lean_internal_panic_out_of_memory() #4
  unreachable

lean_alloc_ctor.exit15:                           ; preds = %lean_alloc_ctor.exit14
  %36 = getelementptr inbounds nuw i8, ptr %33, i64 4
  store i32 1, ptr %33, align 4, !tbaa !4
  store i32 131096, ptr %36, align 4
  %37 = getelementptr inbounds nuw i8, ptr %33, i64 8
  store ptr %28, ptr %37, align 8, !tbaa !12
  %38 = getelementptr inbounds nuw i8, ptr %33, i64 16
  store ptr %7, ptr %38, align 8, !tbaa !12
  ret ptr %33
}